; Function Attrs: nounwind uwtable
define ptr @nghttp2_session_get_stream_user_data(ptr noundef %0, i32 noundef %1) local_unnamed_addr #1 {
  %3 = tail call ptr @nghttp2_map_find(ptr noundef %0, i32 noundef %1) #16
  %4 = icmp eq ptr %3, null
  br i1 %4, label %nghttp2_session_get_stream.exit.thread, label %5

5:                                                ; preds = %2
  %6 = getelementptr inbounds nuw i8, ptr %3, i64 116
  %7 = load i8, ptr %6, align 4, !tbaa !38
  %8 = and i8 %7, 2
  %.not.i = icmp eq i8 %8, 0
  br i1 %.not.i, label %9, label %nghttp2_session_get_stream.exit.thread

9:                                                ; preds = %5
  %10 = load i32, ptr %3, align 8, !tbaa !42
  %11 = icmp eq i32 %10, 5
  br i1 %11, label %nghttp2_session_get_stream.exit.thread, label %nghttp2_session_get_stream.exit

nghttp2_session_get_stream.exit:                  ; preds = %9
  %12 = getelementptr inbounds nuw i8, ptr %3, i64 56
  %13 = load ptr, ptr %12, align 8, !tbaa !127
  br label %nghttp2_session_get_stream.exit.thread

nghttp2_session_get_stream.exit.thread:           ; preds = %9, %2, %5, %nghttp2_session_get_stream.exit
  %.0 = phi ptr [ %13, %nghttp2_session_get_stream.exit ], [ null, %5 ], [ null, %2 ], [ null, %9 ]
  ret ptr %.0
}